target datalayout = "e-m:e-p270:32:32-p271:32:32-p272:64:64-i64:64-i128:128-f80:128-n8:16:32:64-S128"
target triple = "x86_64-pc-linux-gnu"

%struct._cms_typehandler_struct = type { i32, ptr, ptr, ptr, ptr, ptr, i32 }
%struct._cms_io_handler = type { ptr, ptr, i32, i32, [256 x i8], ptr, ptr, ptr, ptr, ptr }

@.str = private unnamed_addr constant [3 x i8] zeroinitializer, align 1
@.str.1 = private unnamed_addr constant [3 x i8] c"\FF\FF\00", align 1

; Function Attrs: nounwind uwtable
define internal ptr @Type_Text_Description_Read(ptr noundef %0, ptr noundef %1, ptr noundef %2, i32 noundef %3) #0 {
  %5 = alloca ptr, align 8
  %6 = alloca ptr, align 8
  %7 = alloca ptr, align 8
  %8 = alloca ptr, align 8
  %9 = alloca i32, align 4
  %10 = alloca ptr, align 8
  %11 = alloca ptr, align 8
  %12 = alloca ptr, align 8
  %13 = alloca i32, align 4
  %14 = alloca i32, align 4
  %15 = alloca i32, align 4
  %16 = alloca i32, align 4
  %17 = alloca i16, align 2
  %18 = alloca i16, align 2
  %19 = alloca i8, align 1
  store ptr %0, ptr %6, align 8
  store ptr %1, ptr %7, align 8
  store ptr %2, ptr %8, align 8
  store i32 %3, ptr %9, align 4
  store ptr null, ptr %10, align 8
  store ptr null, ptr %11, align 8
  store ptr null, ptr %12, align 8
  %20 = load ptr, ptr %8, align 8
  store i32 0, ptr %20, align 4
  %21 = load i32, ptr %9, align 4
  %22 = zext i32 %21 to i64
  %23 = icmp ult i64 %22, 4
  br i1 %23, label %24, label %25

24:                                               ; preds = %4
  store ptr null, ptr %5, align 8
  br label %221

25:                                               ; preds = %4
  %26 = load ptr, ptr %7, align 8
  %27 = call i32 @_cmsReadUInt32Number(ptr noundef %26, ptr noundef %13)
  %28 = icmp ne i32 %27, 0
  br i1 %28, label %30, label %29

29:                                               ; preds = %25
  store ptr null, ptr %5, align 8
  br label %221

30:                                               ; preds = %25
  %31 = load i32, ptr %9, align 4
  %32 = zext i32 %31 to i64
  %33 = sub i64 %32, 4
  %34 = trunc i64 %33 to i32
  store i32 %34, ptr %9, align 4
  %35 = load i32, ptr %9, align 4
  %36 = load i32, ptr %13, align 4
  %37 = icmp ult i32 %35, %36
  br i1 %37, label %38, label %39

38:                                               ; preds = %30
  store ptr null, ptr %5, align 8
  br label %221

39:                                               ; preds = %30
  %40 = load ptr, ptr %6, align 8
  %41 = getelementptr inbounds %struct._cms_typehandler_struct, ptr %40, i32 0, i32 5
  %42 = load ptr, ptr %41, align 8
  %43 = call ptr @cmsMLUalloc(ptr noundef %42, i32 noundef 2)
  store ptr %43, ptr %12, align 8
  %44 = load ptr, ptr %12, align 8
  %45 = icmp eq ptr %44, null
  br i1 %45, label %46, label %47

46:                                               ; preds = %39
  store ptr null, ptr %5, align 8
  br label %221

47:                                               ; preds = %39
  %48 = load ptr, ptr %6, align 8
  %49 = getelementptr inbounds %struct._cms_typehandler_struct, ptr %48, i32 0, i32 5
  %50 = load ptr, ptr %49, align 8
  %51 = load i32, ptr %13, align 4
  %52 = add i32 %51, 1
  %53 = call ptr @_cmsMalloc(ptr noundef %50, i32 noundef %52)
  store ptr %53, ptr %10, align 8
  %54 = load ptr, ptr %10, align 8
  %55 = icmp eq ptr %54, null
  br i1 %55, label %56, label %57

56:                                               ; preds = %47
  br label %199

57:                                               ; preds = %47
  %58 = load ptr, ptr %7, align 8
  %59 = getelementptr inbounds %struct._cms_io_handler, ptr %58, i32 0, i32 5
  %60 = load ptr, ptr %59, align 8
  %61 = load ptr, ptr %7, align 8
  %62 = load ptr, ptr %10, align 8
  %63 = load i32, ptr %13, align 4
  %64 = call i32 %60(ptr noundef %61, ptr noundef %62, i32 noundef 1, i32 noundef %63)
  %65 = load i32, ptr %13, align 4
  %66 = icmp ne i32 %64, %65
  br i1 %66, label %67, label %68

67:                                               ; preds = %57
  br label %199

68:                                               ; preds = %57
  %69 = load i32, ptr %13, align 4
  %70 = load i32, ptr %9, align 4
  %71 = sub i32 %70, %69
  store i32 %71, ptr %9, align 4
  %72 = load ptr, ptr %10, align 8
  %73 = load i32, ptr %13, align 4
  %74 = zext i32 %73 to i64
  %75 = getelementptr inbounds i8, ptr %72, i64 %74
  store i8 0, ptr %75, align 1
  %76 = load ptr, ptr %12, align 8
  %77 = load ptr, ptr %10, align 8
  %78 = call i32 @cmsMLUsetASCII(ptr noundef %76, ptr noundef @.str, ptr noundef @.str, ptr noundef %77)
  %79 = icmp ne i32 %78, 0
  br i1 %79, label %81, label %80

80:                                               ; preds = %68
  br label %199

81:                                               ; preds = %68
  %82 = load ptr, ptr %6, align 8
  %83 = getelementptr inbounds %struct._cms_typehandler_struct, ptr %82, i32 0, i32 5
  %84 = load ptr, ptr %83, align 8
  %85 = load ptr, ptr %10, align 8
  call void @_cmsFree(ptr noundef %84, ptr noundef %85)
  store ptr null, ptr %10, align 8
  %86 = load i32, ptr %9, align 4
  %87 = zext i32 %86 to i64
  %88 = icmp ult i64 %87, 8
  br i1 %88, label %89, label %90

89:                                               ; preds = %81
  br label %196

90:                                               ; preds = %81
  %91 = load ptr, ptr %7, align 8
  %92 = call i32 @_cmsReadUInt32Number(ptr noundef %91, ptr noundef %15)
  %93 = icmp ne i32 %92, 0
  br i1 %93, label %95, label %94

94:                                               ; preds = %90
  br label %196

95:                                               ; preds = %90
  %96 = load ptr, ptr %7, align 8
  %97 = call i32 @_cmsReadUInt32Number(ptr noundef %96, ptr noundef %16)
  %98 = icmp ne i32 %97, 0
  br i1 %98, label %100, label %99

99:                                               ; preds = %95
  br label %196

100:                                              ; preds = %95
  %101 = load i32, ptr %9, align 4
  %102 = zext i32 %101 to i64
  %103 = sub i64 %102, 8
  %104 = trunc i64 %103 to i32
  store i32 %104, ptr %9, align 4
  %105 = load i32, ptr %16, align 4
  %106 = icmp eq i32 %105, 0
  br i1 %106, label %114, label %107

107:                                              ; preds = %100
  %108 = load i32, ptr %9, align 4
  %109 = zext i32 %108 to i64
  %110 = load i32, ptr %16, align 4
  %111 = zext i32 %110 to i64
  %112 = mul i64 %111, 2
  %113 = icmp ult i64 %109, %112
  br i1 %113, label %114, label %115

114:                                              ; preds = %107, %100
  br label %196

115:                                              ; preds = %107
  %116 = load ptr, ptr %6, align 8
  %117 = getelementptr inbounds %struct._cms_typehandler_struct, ptr %116, i32 0, i32 5
  %118 = load ptr, ptr %117, align 8
  %119 = load i32, ptr %16, align 4
  %120 = add i32 %119, 1
  %121 = zext i32 %120 to i64
  %122 = mul i64 %121, 4
  %123 = trunc i64 %122 to i32
  %124 = call ptr @_cmsMallocZero(ptr noundef %118, i32 noundef %123)
  store ptr %124, ptr %11, align 8
  %125 = load ptr, ptr %11, align 8
  %126 = icmp eq ptr %125, null
  br i1 %126, label %127, label %128

127:                                              ; preds = %115
  br label %196

128:                                              ; preds = %115
  %129 = load ptr, ptr %7, align 8
  %130 = load i32, ptr %16, align 4
  %131 = load ptr, ptr %11, align 8
  %132 = call i32 @_cmsReadWCharArray(ptr noundef %129, i32 noundef %130, ptr noundef %131)
  %133 = icmp ne i32 %132, 0
  br i1 %133, label %139, label %134

134:                                              ; preds = %128
  %135 = load ptr, ptr %6, align 8
  %136 = getelementptr inbounds %struct._cms_typehandler_struct, ptr %135, i32 0, i32 5
  %137 = load ptr, ptr %136, align 8
  %138 = load ptr, ptr %11, align 8
  call void @_cmsFree(ptr noundef %137, ptr noundef %138)
  br label %196

139:                                              ; preds = %128
  %140 = load ptr, ptr %11, align 8
  %141 = load i32, ptr %16, align 4
  %142 = zext i32 %141 to i64
  %143 = getelementptr inbounds i32, ptr %140, i64 %142
  store i32 0, ptr %143, align 4
  %144 = load ptr, ptr %12, align 8
  %145 = load ptr, ptr %11, align 8
  %146 = call i32 @cmsMLUsetWide(ptr noundef %144, ptr noundef @.str.1, ptr noundef @.str.1, ptr noundef %145)
  %147 = icmp ne i32 %146, 0
  br i1 %147, label %153, label %148

148:                                              ; preds = %139
  %149 = load ptr, ptr %6, align 8
  %150 = getelementptr inbounds %struct._cms_typehandler_struct, ptr %149, i32 0, i32 5
  %151 = load ptr, ptr %150, align 8
  %152 = load ptr, ptr %11, align 8
  call void @_cmsFree(ptr noundef %151, ptr noundef %152)
  br label %196

153:                                              ; preds = %139
  %154 = load ptr, ptr %6, align 8
  %155 = getelementptr inbounds %struct._cms_typehandler_struct, ptr %154, i32 0, i32 5
  %156 = load ptr, ptr %155, align 8
  %157 = load ptr, ptr %11, align 8
  call void @_cmsFree(ptr noundef %156, ptr noundef %157)
  store ptr null, ptr %11, align 8
  %158 = load i32, ptr %16, align 4
  %159 = zext i32 %158 to i64
  %160 = mul i64 %159, 2
  %161 = load i32, ptr %9, align 4
  %162 = zext i32 %161 to i64
  %163 = sub i64 %162, %160
  %164 = trunc i64 %163 to i32
  store i32 %164, ptr %9, align 4
  %165 = load i32, ptr %9, align 4
  %166 = zext i32 %165 to i64
  %167 = icmp uge i64 %166, 70
  br i1 %167, label %168, label %195

168:                                              ; preds = %153
  %169 = load ptr, ptr %7, align 8
  %170 = call i32 @_cmsReadUInt16Number(ptr noundef %169, ptr noundef %17)
  %171 = icmp ne i32 %170, 0
  br i1 %171, label %173, label %172

172:                                              ; preds = %168
  br label %196

173:                                              ; preds = %168
  %174 = load ptr, ptr %7, align 8
  %175 = call i32 @_cmsReadUInt8Number(ptr noundef %174, ptr noundef %19)
  %176 = icmp ne i32 %175, 0
  br i1 %176, label %178, label %177

177:                                              ; preds = %173
  br label %196

178:                                              ; preds = %173
  store i32 0, ptr %14, align 4
  br label %179

179:                                              ; preds = %191, %178
  %180 = load i32, ptr %14, align 4
  %181 = icmp ult i32 %180, 67
  br i1 %181, label %182, label %194

182:                                              ; preds = %179
  %183 = load ptr, ptr %7, align 8
  %184 = getelementptr inbounds %struct._cms_io_handler, ptr %183, i32 0, i32 5
  %185 = load ptr, ptr %184, align 8
  %186 = load ptr, ptr %7, align 8
  %187 = call i32 %185(ptr noundef %186, ptr noundef %18, i32 noundef 1, i32 noundef 1)
  %188 = icmp ne i32 %187, 0
  br i1 %188, label %190, label %189

189:                                              ; preds = %182
  br label %199

190:                                              ; preds = %182
  br label %191

191:                                              ; preds = %190
  %192 = load i32, ptr %14, align 4
  %193 = add i32 %192, 1
  store i32 %193, ptr %14, align 4
  br label %179, !llvm.loop !20

194:                                              ; preds = %179
  br label %195

195:                                              ; preds = %194, %153
  br label %196

196:                                              ; preds = %195, %177, %172, %148, %134, %127, %114, %99, %94, %89
  %197 = load ptr, ptr %8, align 8
  store i32 1, ptr %197, align 4
  %198 = load ptr, ptr %12, align 8
  store ptr %198, ptr %5, align 8
  br label %221

199:                                              ; preds = %189, %80, %67, %56
  %200 = load ptr, ptr %11, align 8
  %201 = icmp ne ptr %200, null
  br i1 %201, label %202, label %207

202:                                              ; preds = %199
  %203 = load ptr, ptr %6, align 8
  %204 = getelementptr inbounds %struct._cms_typehandler_struct, ptr %203, i32 0, i32 5
  %205 = load ptr, ptr %204, align 8
  %206 = load ptr, ptr %11, align 8
  call void @_cmsFree(ptr noundef %205, ptr noundef %206)
  br label %207

207:                                              ; preds = %202, %199
  %208 = load ptr, ptr %10, align 8
  %209 = icmp ne ptr %208, null
  br i1 %209, label %210, label %215

210:                                              ; preds = %207
  %211 = load ptr, ptr %6, align 8
  %212 = getelementptr inbounds %struct._cms_typehandler_struct, ptr %211, i32 0, i32 5
  %213 = load ptr, ptr %212, align 8
  %214 = load ptr, ptr %10, align 8
  call void @_cmsFree(ptr noundef %213, ptr noundef %214)
  br label %215

215:                                              ; preds = %210, %207
  %216 = load ptr, ptr %12, align 8
  %217 = icmp ne ptr %216, null
  br i1 %217, label %218, label %220

218:                                              ; preds = %215
  %219 = load ptr, ptr %12, align 8
  call void @cmsMLUfree(ptr noundef %219)
  br label %220

220:                                              ; preds = %218, %215
  store ptr null, ptr %5, align 8
  br label %221

221:                                              ; preds = %220, %196, %46, %38, %29, %24
  %222 = load ptr, ptr %5, align 8
  ret ptr %222
}