; Function Attrs: nounwind uwtable
define internal ptr @Type_Text_Description_Read(ptr nocapture noundef readonly %0, ptr noundef %1, ptr nocapture noundef writeonly %2, i32 noundef %3) #0 {
  %5 = alloca i32, align 4
  %6 = alloca i32, align 4
  %7 = alloca i32, align 4
  %8 = alloca i16, align 2
  %9 = alloca i16, align 2
  %10 = alloca i8, align 1
  store i32 0, ptr %2, align 4
  %11 = icmp ult i32 %3, 4
  br i1 %11, label %88, label %12

12:                                               ; preds = %4
  %13 = call i32 @_cmsReadUInt32Number(ptr noundef %1, ptr noundef nonnull %5) #13
  %.not = icmp eq i32 %13, 0
  br i1 %.not, label %88, label %14

14:                                               ; preds = %12
  %15 = add i32 %3, -4
  %16 = load i32, ptr %5, align 4
  %17 = icmp ult i32 %15, %16
  br i1 %17, label %88, label %18

18:                                               ; preds = %14
  %19 = getelementptr inbounds i8, ptr %0, i64 40
  %20 = load ptr, ptr %19, align 8
  %21 = call ptr @cmsMLUalloc(ptr noundef %20, i32 noundef 2) #13
  %22 = icmp eq ptr %21, null
  br i1 %22, label %88, label %23

23:                                               ; preds = %18
  %24 = load ptr, ptr %19, align 8
  %25 = load i32, ptr %5, align 4
  %26 = add i32 %25, 1
  %27 = call ptr @_cmsMalloc(ptr noundef %24, i32 noundef %26) #13
  %28 = icmp eq ptr %27, null
  br i1 %28, label %.thread, label %29

29:                                               ; preds = %23
  %30 = getelementptr inbounds i8, ptr %1, i64 280
  %31 = load ptr, ptr %30, align 8
  %32 = load i32, ptr %5, align 4
  %33 = call i32 %31(ptr noundef %1, ptr noundef nonnull %27, i32 noundef 1, i32 noundef %32) #13
  %34 = load i32, ptr %5, align 4
  %.not66 = icmp eq i32 %33, %34
  br i1 %.not66, label %35, label %86

35:                                               ; preds = %29
  %36 = zext i32 %33 to i64
  %37 = getelementptr inbounds i8, ptr %27, i64 %36
  store i8 0, ptr %37, align 1
  %38 = call i32 @cmsMLUsetASCII(ptr noundef nonnull %21, ptr noundef nonnull @.str, ptr noundef nonnull @.str, ptr noundef nonnull %27) #13
  %.not67 = icmp eq i32 %38, 0
  br i1 %.not67, label %86, label %39

39:                                               ; preds = %35
  %40 = sub i32 %15, %33
  %41 = load ptr, ptr %19, align 8
  call void @_cmsFree(ptr noundef %41, ptr noundef nonnull %27) #13
  %42 = icmp ult i32 %40, 8
  br i1 %42, label %.loopexit, label %43

43:                                               ; preds = %39
  %44 = call i32 @_cmsReadUInt32Number(ptr noundef nonnull %1, ptr noundef nonnull %6) #13
  %.not68 = icmp eq i32 %44, 0
  br i1 %.not68, label %.loopexit, label %45

45:                                               ; preds = %43
  %46 = call i32 @_cmsReadUInt32Number(ptr noundef nonnull %1, ptr noundef nonnull %7) #13
  %.not69 = icmp eq i32 %46, 0
  br i1 %.not69, label %.loopexit, label %47

47:                                               ; preds = %45
  %48 = load i32, ptr %7, align 4
  %49 = icmp eq i32 %48, 0
  br i1 %49, label %.loopexit, label %50

50:                                               ; preds = %47
  %51 = add i32 %40, -8
  %52 = zext i32 %51 to i64
  %53 = zext i32 %48 to i64
  %54 = shl nuw nsw i64 %53, 1
  %55 = icmp ugt i64 %54, %52
  br i1 %55, label %.loopexit, label %56

56:                                               ; preds = %50
  %57 = load ptr, ptr %19, align 8
  %58 = shl i32 %48, 2
  %59 = add i32 %58, 4
  %60 = call ptr @_cmsMallocZero(ptr noundef %57, i32 noundef %59) #13
  %61 = icmp eq ptr %60, null
  br i1 %61, label %.loopexit, label %62

62:                                               ; preds = %56
  %63 = load i32, ptr %7, align 4
  %64 = call fastcc i32 @_cmsReadWCharArray(ptr noundef nonnull %1, i32 noundef %63, ptr noundef nonnull %60)
  %.not70 = icmp eq i32 %64, 0
  br i1 %.not70, label %65, label %67

65:                                               ; preds = %62
  %66 = load ptr, ptr %19, align 8
  call void @_cmsFree(ptr noundef %66, ptr noundef nonnull %60) #13
  br label %.loopexit

67:                                               ; preds = %62
  %68 = load i32, ptr %7, align 4
  %69 = zext i32 %68 to i64
  %70 = getelementptr inbounds i32, ptr %60, i64 %69
  store i32 0, ptr %70, align 4
  %71 = call i32 @cmsMLUsetWide(ptr noundef nonnull %21, ptr noundef nonnull @.str.1, ptr noundef nonnull @.str.1, ptr noundef nonnull %60) #13
  %.not71 = icmp eq i32 %71, 0
  %72 = load ptr, ptr %19, align 8
  call void @_cmsFree(ptr noundef %72, ptr noundef nonnull %60) #13
  br i1 %.not71, label %.loopexit, label %73

73:                                               ; preds = %67
  %74 = load i32, ptr %7, align 4
  %75 = shl i32 %74, 1
  %76 = sub i32 %51, %75
  %77 = icmp ugt i32 %76, 69
  br i1 %77, label %78, label %.loopexit

78:                                               ; preds = %73
  %79 = call i32 @_cmsReadUInt16Number(ptr noundef nonnull %1, ptr noundef nonnull %8) #13
  %.not72 = icmp eq i32 %79, 0
  br i1 %.not72, label %.loopexit, label %80

80:                                               ; preds = %78
  %81 = call i32 @_cmsReadUInt8Number(ptr noundef nonnull %1, ptr noundef nonnull %10) #13
  %.not73 = icmp eq i32 %81, 0
  br i1 %.not73, label %.loopexit, label %.preheader

82:                                               ; preds = %.preheader
  %83 = add nuw nsw i32 %.078, 1
  %exitcond.not = icmp eq i32 %83, 67
  br i1 %exitcond.not, label %.loopexit, label %.preheader, !llvm.loop !20

.preheader:                                       ; preds = %80, %82
  %.078 = phi i32 [ %83, %82 ], [ 0, %80 ]
  %84 = load ptr, ptr %30, align 8
  %85 = call i32 %84(ptr noundef nonnull %1, ptr noundef nonnull %9, i32 noundef 1, i32 noundef 1) #13
  %.not74 = icmp eq i32 %85, 0
  br i1 %.not74, label %.thread, label %82

.loopexit:                                        ; preds = %82, %67, %73, %80, %78, %56, %47, %50, %45, %43, %39, %65
  store i32 1, ptr %2, align 4
  br label %88

86:                                               ; preds = %35, %29
  %87 = load ptr, ptr %19, align 8
  call void @_cmsFree(ptr noundef %87, ptr noundef nonnull %27) #13
  br label %.thread

.thread:                                          ; preds = %.preheader, %23, %86
  call void @cmsMLUfree(ptr noundef nonnull %21) #13
  br label %88

88:                                               ; preds = %18, %14, %12, %4, %.thread, %.loopexit
  %.056 = phi ptr [ null, %.thread ], [ %21, %.loopexit ], [ null, %4 ], [ null, %12 ], [ null, %14 ], [ null, %18 ]
  ret ptr %.056
}